; Function Attrs: mustprogress uwtable
define void @_ZN6google8protobuf2io16ArrayInputStream6BackUpEi(ptr nocapture noundef nonnull align 8 dereferenceable(32) %0, i32 noundef %1) unnamed_addr #5 align 2 personality ptr @__gxx_personality_v0 {
  %3 = alloca %"class.google::protobuf::internal::LogMessage", align 8
  %4 = alloca %"class.google::protobuf::internal::LogFinisher", align 1
  %5 = alloca %"class.google::protobuf::internal::LogMessage", align 8
  %6 = alloca %"class.google::protobuf::internal::LogFinisher", align 1
  %7 = alloca %"class.google::protobuf::internal::LogMessage", align 8
  %8 = alloca %"class.google::protobuf::internal::LogFinisher", align 1
  %9 = getelementptr inbounds i8, ptr %0, i64 28
  %10 = load i32, ptr %9, align 4
  %11 = icmp slt i32 %10, 1
  br i1 %11, label %12, label %.critedge

12:                                               ; preds = %2
  call void @_ZN6google8protobuf8internal10LogMessageC1ENS0_8LogLevelEPKci(ptr noundef nonnull align 8 dereferenceable(56) %3, i32 noundef 3, ptr noundef nonnull @.str, i32 noundef 80)
  %13 = invoke noundef nonnull align 8 dereferenceable(56) ptr @_ZN6google8protobuf8internal10LogMessagelsEPKc(ptr noundef nonnull align 8 dereferenceable(56) %3, ptr noundef nonnull @.str.1)
          to label %14 unwind label %31

14:                                               ; preds = %12
  %15 = invoke noundef nonnull align 8 dereferenceable(56) ptr @_ZN6google8protobuf8internal10LogMessagelsEPKc(ptr noundef nonnull align 8 dereferenceable(56) %13, ptr noundef nonnull @.str.2)
          to label %16 unwind label %31

16:                                               ; preds = %14
  invoke void @_ZN6google8protobuf8internal11LogFinisheraSERNS1_10LogMessageE(ptr noundef nonnull align 1 dereferenceable(1) %4, ptr noundef nonnull align 8 dereferenceable(56) %15)
          to label %17 unwind label %31

17:                                               ; preds = %16
  call void @_ZN6google8protobuf8internal10LogMessageD1Ev(ptr noundef nonnull align 8 dereferenceable(56) %3) #16
  %.pre = load i32, ptr %9, align 4
  br label %.critedge

.critedge:                                        ; preds = %2, %17
  %18 = phi i32 [ %10, %2 ], [ %.pre, %17 ]
  %.not = icmp slt i32 %18, %1
  br i1 %.not, label %19, label %.critedge17

19:                                               ; preds = %.critedge
  call void @_ZN6google8protobuf8internal10LogMessageC1ENS0_8LogLevelEPKci(ptr noundef nonnull align 8 dereferenceable(56) %5, i32 noundef 3, ptr noundef nonnull @.str, i32 noundef 82)
  %20 = invoke noundef nonnull align 8 dereferenceable(56) ptr @_ZN6google8protobuf8internal10LogMessagelsEPKc(ptr noundef nonnull align 8 dereferenceable(56) %5, ptr noundef nonnull @.str.3)
          to label %21 unwind label %33

21:                                               ; preds = %19
  invoke void @_ZN6google8protobuf8internal11LogFinisheraSERNS1_10LogMessageE(ptr noundef nonnull align 1 dereferenceable(1) %6, ptr noundef nonnull align 8 dereferenceable(56) %20)
          to label %22 unwind label %33

22:                                               ; preds = %21
  call void @_ZN6google8protobuf8internal10LogMessageD1Ev(ptr noundef nonnull align 8 dereferenceable(56) %5) #16
  br label %.critedge17

.critedge17:                                      ; preds = %.critedge, %22
  %23 = icmp slt i32 %1, 0
  br i1 %23, label %24, label %.critedge19

24:                                               ; preds = %.critedge17
  call void @_ZN6google8protobuf8internal10LogMessageC1ENS0_8LogLevelEPKci(ptr noundef nonnull align 8 dereferenceable(56) %7, i32 noundef 3, ptr noundef nonnull @.str, i32 noundef 83)
  %25 = invoke noundef nonnull align 8 dereferenceable(56) ptr @_ZN6google8protobuf8internal10LogMessagelsEPKc(ptr noundef nonnull align 8 dereferenceable(56) %7, ptr noundef nonnull @.str.4)
          to label %26 unwind label %35

26:                                               ; preds = %24
  invoke void @_ZN6google8protobuf8internal11LogFinisheraSERNS1_10LogMessageE(ptr noundef nonnull align 1 dereferenceable(1) %8, ptr noundef nonnull align 8 dereferenceable(56) %25)
          to label %27 unwind label %35

27:                                               ; preds = %26
  call void @_ZN6google8protobuf8internal10LogMessageD1Ev(ptr noundef nonnull align 8 dereferenceable(56) %7) #16
  br label %.critedge19

.critedge19:                                      ; preds = %.critedge17, %27
  %28 = getelementptr inbounds i8, ptr %0, i64 24
  %29 = load i32, ptr %28, align 8
  %30 = sub nsw i32 %29, %1
  store i32 %30, ptr %28, align 8
  store i32 0, ptr %9, align 4
  ret void

31:                                               ; preds = %16, %14, %12
  %32 = landingpad { ptr, i32 }
          cleanup
  br label %37

33:                                               ; preds = %21, %19
  %34 = landingpad { ptr, i32 }
          cleanup
  br label %37

35:                                               ; preds = %26, %24
  %36 = landingpad { ptr, i32 }
          cleanup
  br label %37

37:                                               ; preds = %35, %33, %31
  %.sink = phi ptr [ %7, %35 ], [ %5, %33 ], [ %3, %31 ]
  %.pn = phi { ptr, i32 } [ %36, %35 ], [ %34, %33 ], [ %32, %31 ]
  call void @_ZN6google8protobuf8internal10LogMessageD1Ev(ptr noundef nonnull align 8 dereferenceable(56) %.sink) #16
  resume { ptr, i32 } %.pn
}